target datalayout = "e-m:e-p270:32:32-p271:32:32-p272:64:64-i64:64-i128:128-f80:128-n8:16:32:64-S128"
target triple = "x86_64-pc-linux-gnu"

%struct.CodedBitstreamContext = type { ptr, ptr, ptr, ptr, i32, i32, i32, ptr, ptr, ptr, ptr, i64 }
%struct.CodedBitstreamH2645Context = type { i32, i32, %struct.H2645Packet }
%struct.H2645Packet = type { ptr, %struct.H2645RBSP, i32, i32, i32 }
%struct.H2645RBSP = type { ptr, ptr, i32, i32 }
%struct.CodedBitstreamUnit = type { i32, ptr, i64, i64, ptr, ptr, ptr }
%struct.CodedBitstreamH266Context = type { %struct.CodedBitstreamH2645Context, [16 x ptr], [16 x ptr], [64 x ptr], ptr, ptr }

@.str = private unnamed_addr constant [30 x i8] c"Assertion %s failed at %s:%d\0A\00", align 1
@.str.3 = private unnamed_addr constant [23 x i8] c"libavcodec/cbs_h2645.c\00", align 1
@.str.114 = private unnamed_addr constant [18 x i8] c"unit->content_ref\00", align 1

; Function Attrs: nounwind uwtable
define internal i32 @cbs_h266_replace_ph(ptr noundef %0, ptr noundef %1, ptr noundef %2) #0 {
  %4 = alloca i32, align 4
  %5 = alloca ptr, align 8
  %6 = alloca ptr, align 8
  %7 = alloca ptr, align 8
  %8 = alloca ptr, align 8
  %9 = alloca i32, align 4
  %10 = alloca i32, align 4
  store ptr %0, ptr %5, align 8, !tbaa !4
  store ptr %1, ptr %6, align 8, !tbaa !49
  store ptr %2, ptr %7, align 8, !tbaa !1233
  call void @llvm.lifetime.start.p0(i64 8, ptr %8) #11
  %11 = load ptr, ptr %5, align 8, !tbaa !4
  %12 = getelementptr inbounds nuw %struct.CodedBitstreamContext, ptr %11, i32 0, i32 2
  %13 = load ptr, ptr %12, align 8, !tbaa !23
  store ptr %13, ptr %8, align 8, !tbaa !156
  call void @llvm.lifetime.start.p0(i64 4, ptr %9) #11
  %14 = load ptr, ptr %5, align 8, !tbaa !4
  %15 = load ptr, ptr %6, align 8, !tbaa !49
  %16 = call i32 @ff_cbs_make_unit_refcounted(ptr noundef %14, ptr noundef %15)
  store i32 %16, ptr %9, align 4, !tbaa !11
  %17 = load i32, ptr %9, align 4, !tbaa !11
  %18 = icmp slt i32 %17, 0
  br i1 %18, label %19, label %21

19:                                               ; preds = %3
  %20 = load i32, ptr %9, align 4, !tbaa !11
  store i32 %20, ptr %4, align 4
  store i32 1, ptr %10, align 4
  br label %39

21:                                               ; preds = %3
  br label %22

22:                                               ; preds = %21
  %23 = load ptr, ptr %6, align 8, !tbaa !49
  %24 = getelementptr inbounds nuw %struct.CodedBitstreamUnit, ptr %23, i32 0, i32 6
  %25 = load ptr, ptr %24, align 8, !tbaa !244
  %26 = icmp ne ptr %25, null
  br i1 %26, label %28, label %27

27:                                               ; preds = %22
  call void (ptr, i32, ptr, ...) @av_log(ptr noundef null, i32 noundef 0, ptr noundef @.str, ptr noundef @.str.114, ptr noundef @.str.3, i32 noundef 830)
  call void @abort() #12
  unreachable

28:                                               ; preds = %22
  br label %29

29:                                               ; preds = %28
  br label %30

30:                                               ; preds = %29
  %31 = load ptr, ptr %8, align 8, !tbaa !156
  %32 = getelementptr inbounds nuw %struct.CodedBitstreamH266Context, ptr %31, i32 0, i32 5
  %33 = load ptr, ptr %6, align 8, !tbaa !49
  %34 = getelementptr inbounds nuw %struct.CodedBitstreamUnit, ptr %33, i32 0, i32 6
  %35 = load ptr, ptr %34, align 8, !tbaa !244
  call void @av_refstruct_replace(ptr noundef %32, ptr noundef %35)
  %36 = load ptr, ptr %7, align 8, !tbaa !1233
  %37 = load ptr, ptr %8, align 8, !tbaa !156
  %38 = getelementptr inbounds nuw %struct.CodedBitstreamH266Context, ptr %37, i32 0, i32 4
  store ptr %36, ptr %38, align 8, !tbaa !1235
  store i32 0, ptr %4, align 4
  store i32 1, ptr %10, align 4
  br label %39

39:                                               ; preds = %30, %19
  call void @llvm.lifetime.end.p0(i64 4, ptr %9) #11
  call void @llvm.lifetime.end.p0(i64 8, ptr %8) #11
  %40 = load i32, ptr %4, align 4
  ret i32 %40
}