; Function Attrs: nounwind uwtable
define internal fastcc range(i32 -2147483648, 1) i32 @cbs_h266_replace_ph(ptr noundef %0, ptr noundef %1, ptr noundef %2) unnamed_addr #0 {
  %4 = getelementptr inbounds nuw i8, ptr %0, i64 16
  %5 = load ptr, ptr %4, align 8, !tbaa !18
  %6 = tail call i32 @ff_cbs_make_unit_refcounted(ptr noundef %0, ptr noundef %1) #11
  %7 = icmp slt i32 %6, 0
  br i1 %7, label %15, label %8

8:                                                ; preds = %3
  %9 = getelementptr inbounds nuw i8, ptr %1, i64 48
  %10 = load ptr, ptr %9, align 8, !tbaa !112
  %.not = icmp eq ptr %10, null
  br i1 %.not, label %11, label %12

11:                                               ; preds = %8
  tail call void (ptr, i32, ptr, ...) @av_log(ptr noundef null, i32 noundef 0, ptr noundef nonnull @.str, ptr noundef nonnull @.str.114, ptr noundef nonnull @.str.3, i32 noundef 830) #11
  tail call void @abort() #12
  unreachable

12:                                               ; preds = %8
  %13 = getelementptr inbounds nuw i8, ptr %5, i64 832
  tail call void @av_refstruct_replace(ptr noundef nonnull %13, ptr noundef nonnull %10) #11
  %14 = getelementptr inbounds nuw i8, ptr %5, i64 824
  store ptr %2, ptr %14, align 8, !tbaa !490
  br label %15

15:                                               ; preds = %3, %12
  %.0 = phi i32 [ 0, %12 ], [ %6, %3 ]
  ret i32 %.0
}